target datalayout = "e-m:e-p270:32:32-p271:32:32-p272:64:64-i64:64-i128:128-f80:128-n8:16:32:64-S128"
target triple = "x86_64-pc-linux-gnu"

%class.ZObjectAllocator = type { i8, i8, %class.ZValue, %class.ZValue, %class.ZValue.1, %class.ZValue.2 }
%class.ZValue = type { i64 }
%class.ZValue.1 = type { i64 }
%class.ZValue.2 = type { i64 }
%class.ZAllocationFlags = type { i8 }
%class.PaddedEnd = type { %class.PaddedEndImpl }
%class.PaddedEndImpl = type { %"struct.ZCPU::ZCPUAffinity", [120 x i8] }
%"struct.ZCPU::ZCPUAffinity" = type { ptr }

@_ZN4ZCPU9_affinityE = external global ptr, align 8
@_ZN4ZCPU4_cpuE = external thread_local global i32, align 4
@_ZN4ZCPU5_selfE = external thread_local global ptr, align 8

; Function Attrs: mustprogress nounwind uwtable
define linkonce_odr hidden noundef i64 @_ZNK6ZValueI14ZPerCPUStorageP5ZPageE10value_addrEj(ptr noundef nonnull align 8 dereferenceable(8) %0, i32 noundef %1) #1 comdat align 2 {
  %3 = alloca ptr, align 8
  %4 = alloca i32, align 4
  store ptr %0, ptr %3, align 8
  store i32 %1, ptr %4, align 4
  %5 = load ptr, ptr %3, align 8
  %6 = getelementptr inbounds %class.ZValue.2, ptr %5, i32 0, i32 0
  %7 = load i64, ptr %6, align 8
  %8 = load i32, ptr %4, align 4
  %9 = zext i32 %8 to i64
  %10 = mul i64 %9, 4096
  %11 = add i64 %7, %10
  ret i64 %11
}

; Function Attrs: mustprogress nounwind uwtable
define linkonce_odr hidden noundef i32 @_ZN4ZCPU2idEv() #1 comdat align 2 {
  %1 = alloca i32, align 4
  %2 = load ptr, ptr @_ZN4ZCPU9_affinityE, align 8
  %3 = call align 4 ptr @llvm.threadlocal.address.p0(ptr align 4 @_ZN4ZCPU4_cpuE)
  %4 = load i32, ptr %3, align 4
  %5 = zext i32 %4 to i64
  %6 = getelementptr inbounds %class.PaddedEnd, ptr %2, i64 %5
  %7 = getelementptr inbounds %"struct.ZCPU::ZCPUAffinity", ptr %6, i32 0, i32 0
  %8 = load ptr, ptr %7, align 8
  %9 = call align 8 ptr @llvm.threadlocal.address.p0(ptr align 8 @_ZN4ZCPU5_selfE)
  %10 = load ptr, ptr %9, align 8
  %11 = icmp eq ptr %8, %10
  br i1 %11, label %12, label %15

12:                                               ; preds = %0
  %13 = call align 4 ptr @llvm.threadlocal.address.p0(ptr align 4 @_ZN4ZCPU4_cpuE)
  %14 = load i32, ptr %13, align 4
  store i32 %14, ptr %1, align 4
  br label %17

15:                                               ; preds = %0
  %16 = call noundef i32 @_ZN4ZCPU7id_slowEv()
  store i32 %16, ptr %1, align 4
  br label %17

17:                                               ; preds = %15, %12
  %18 = load i32, ptr %1, align 4
  ret i32 %18
}

; Function Attrs: mustprogress nounwind uwtable
define linkonce_odr hidden noundef ptr @_ZN6ZValueI14ZPerCPUStorageP5ZPageE4addrEj(ptr noundef nonnull align 8 dereferenceable(8) %0, i32 noundef %1) #1 comdat align 2 {
  %3 = alloca ptr, align 8
  %4 = alloca i32, align 4
  store ptr %0, ptr %3, align 8
  store i32 %1, ptr %4, align 4
  %5 = load ptr, ptr %3, align 8
  %6 = load i32, ptr %4, align 4
  %7 = call noundef i64 @_ZNK6ZValueI14ZPerCPUStorageP5ZPageE10value_addrEj(ptr noundef nonnull align 8 dereferenceable(8) %5, i32 noundef %6)
  %8 = inttoptr i64 %7 to ptr
  ret ptr %8
}

; Function Attrs: mustprogress nounwind uwtable
define linkonce_odr hidden noundef i32 @_ZN14ZPerCPUStorage2idEv() #1 comdat align 2 {
  %1 = call noundef i32 @_ZN4ZCPU2idEv()
  ret i32 %1
}

; Function Attrs: mustprogress nounwind uwtable
define hidden noundef ptr @_ZN16ZObjectAllocator22shared_small_page_addrEv(ptr noundef nonnull align 8 dereferenceable(40) %0) #1 align 2 {
  %2 = alloca ptr, align 8
  store ptr %0, ptr %2, align 8
  %3 = load ptr, ptr %2, align 8
  %4 = getelementptr inbounds %class.ZObjectAllocator, ptr %3, i32 0, i32 1
  %5 = load i8, ptr %4, align 1
  %6 = trunc i8 %5 to i1
  br i1 %6, label %7, label %11

7:                                                ; preds = %1
  %8 = getelementptr inbounds %class.ZObjectAllocator, ptr %3, i32 0, i32 5
  %9 = call noundef i32 @_ZN14ZPerCPUStorage2idEv()
  %10 = call noundef ptr @_ZN6ZValueI14ZPerCPUStorageP5ZPageE4addrEj(ptr noundef nonnull align 8 dereferenceable(8) %8, i32 noundef %9)
  br label %14

11:                                               ; preds = %1
  %12 = getelementptr inbounds %class.ZObjectAllocator, ptr %3, i32 0, i32 5
  %13 = call noundef ptr @_ZN6ZValueI14ZPerCPUStorageP5ZPageE4addrEj(ptr noundef nonnull align 8 dereferenceable(8) %12, i32 noundef 0)
  br label %14

14:                                               ; preds = %11, %7
  %15 = phi ptr [ %10, %7 ], [ %13, %11 ]
  ret ptr %15
}

; Function Attrs: mustprogress nounwind uwtable
define hidden noundef i64 @_ZN16ZObjectAllocator18alloc_small_objectEm16ZAllocationFlags(ptr noundef nonnull align 8 dereferenceable(40) %0, i64 noundef %1, i8 %2) #1 align 2 {
  %4 = alloca %class.ZAllocationFlags, align 1
  %5 = alloca ptr, align 8
  %6 = alloca i64, align 8
  %7 = alloca %class.ZAllocationFlags, align 1
  %8 = getelementptr inbounds %class.ZAllocationFlags, ptr %4, i32 0, i32 0
  store i8 %2, ptr %8, align 1
  store ptr %0, ptr %5, align 8
  store i64 %1, ptr %6, align 8
  %9 = load ptr, ptr %5, align 8
  %10 = call noundef ptr @_ZN16ZObjectAllocator22shared_small_page_addrEv(ptr noundef nonnull align 8 dereferenceable(40) %9)
  %11 = load i64, ptr %6, align 8
  call void @llvm.memcpy.p0.p0.i64(ptr align 1 %7, ptr align 1 %4, i64 1, i1 false)
  %12 = getelementptr inbounds %class.ZAllocationFlags, ptr %7, i32 0, i32 0
  %13 = load i8, ptr %12, align 1
  %14 = call noundef i64 @_ZN16ZObjectAllocator27alloc_object_in_shared_pageEPP5ZPage9ZPageTypemm16ZAllocationFlags(ptr noundef nonnull align 8 dereferenceable(40) %9, ptr noundef %10, i8 noundef zeroext 0, i64 noundef 2097152, i64 noundef %11, i8 %13)
  ret i64 %14
}