; Function Attrs: mustprogress nounwind uwtable
define hidden noundef i64 @_ZN16ZObjectAllocator18alloc_small_objectEm16ZAllocationFlags(ptr nocapture noundef nonnull readonly align 8 dereferenceable(40) %0, i64 noundef %1, i8 %2) local_unnamed_addr #1 align 2 {
  %4 = getelementptr inbounds i8, ptr %0, i64 1
  %5 = load i8, ptr %4, align 1
  %6 = trunc i8 %5 to i1
  %7 = getelementptr inbounds i8, ptr %0, i64 32
  br i1 %6, label %8, label %23

8:                                                ; preds = %3
  %9 = load ptr, ptr @_ZN4ZCPU9_affinityE, align 8
  %10 = tail call align 4 ptr @llvm.threadlocal.address.p0(ptr align 4 @_ZN4ZCPU4_cpuE)
  %11 = load i32, ptr %10, align 4
  %12 = zext i32 %11 to i64
  %13 = getelementptr inbounds %class.PaddedEnd, ptr %9, i64 %12
  %14 = load ptr, ptr %13, align 8
  %15 = tail call align 8 ptr @llvm.threadlocal.address.p0(ptr align 8 @_ZN4ZCPU5_selfE)
  %16 = load ptr, ptr %15, align 8
  %17 = icmp eq ptr %14, %16
  br i1 %17, label %_ZN14ZPerCPUStorage2idEv.exit.i, label %18

18:                                               ; preds = %8
  %19 = tail call noundef i32 @_ZN4ZCPU7id_slowEv() #8
  %.pre.i = zext i32 %19 to i64
  br label %_ZN14ZPerCPUStorage2idEv.exit.i

_ZN14ZPerCPUStorage2idEv.exit.i:                  ; preds = %18, %8
  %.pre-phi.i = phi i64 [ %12, %8 ], [ %.pre.i, %18 ]
  %20 = load i64, ptr %7, align 8
  %21 = shl nuw nsw i64 %.pre-phi.i, 12
  %22 = add i64 %21, %20
  br label %_ZN16ZObjectAllocator22shared_small_page_addrEv.exit

23:                                               ; preds = %3
  %24 = load i64, ptr %7, align 8
  br label %_ZN16ZObjectAllocator22shared_small_page_addrEv.exit

_ZN16ZObjectAllocator22shared_small_page_addrEv.exit: ; preds = %_ZN14ZPerCPUStorage2idEv.exit.i, %23
  %.in.i = phi i64 [ %22, %_ZN14ZPerCPUStorage2idEv.exit.i ], [ %24, %23 ]
  %25 = inttoptr i64 %.in.i to ptr
  %26 = tail call noundef i64 @_ZN16ZObjectAllocator27alloc_object_in_shared_pageEPP5ZPage9ZPageTypemm16ZAllocationFlags(ptr noundef nonnull align 8 dereferenceable(40) %0, ptr noundef %25, i8 noundef zeroext 0, i64 noundef 2097152, i64 noundef %1, i8 %2)
  ret i64 %26
}